; Function Attrs: mustprogress uwtable
define noundef ptr @_ZN19OpenColorIO_v2_4dev13FileTransform25GetFormatExtensionByIndexEi(i32 noundef %index) local_unnamed_addr #3 align 2 {
entry:
  %call = tail call noundef nonnull align 8 dereferenceable(264) ptr @_ZN19OpenColorIO_v2_4dev14FormatRegistry11GetInstanceEv()
  %cmp2.i = icmp slt i32 %index, 0
  br i1 %cmp2.i, label %_ZNK19OpenColorIO_v2_4dev14FormatRegistry25getFormatExtensionByIndexEii.exit, label %lor.lhs.false.i

lor.lhs.false.i:                                  ; preds = %entry
  %m_readFormatExtensions.i = getelementptr inbounds i8, ptr %call, i64 144
  %_M_finish.i.i = getelementptr inbounds i8, ptr %call, i64 152
  %0 = load ptr, ptr %_M_finish.i.i, align 8
  %1 = load ptr, ptr %m_readFormatExtensions.i, align 8
  %sub.ptr.lhs.cast.i.i = ptrtoint ptr %0 to i64
  %sub.ptr.rhs.cast.i.i = ptrtoint ptr %1 to i64
  %sub.ptr.sub.i.i = sub i64 %sub.ptr.lhs.cast.i.i, %sub.ptr.rhs.cast.i.i
  %sub.ptr.div.i.i = lshr exact i64 %sub.ptr.sub.i.i, 5
  %conv.i = trunc i64 %sub.ptr.div.i.i to i32
  %cmp3.not.i = icmp sgt i32 %conv.i, %index
  br i1 %cmp3.not.i, label %return.sink.split.i, label %_ZNK19OpenColorIO_v2_4dev14FormatRegistry25getFormatExtensionByIndexEii.exit

return.sink.split.i:                              ; preds = %lor.lhs.false.i
  %conv33.i = zext nneg i32 %index to i64
  %add.ptr.i22.i = getelementptr inbounds %"class.std::__cxx11::basic_string", ptr %1, i64 %conv33.i
  %call35.i = tail call noundef ptr @_ZNKSt7__cxx1112basic_stringIcSt11char_traitsIcESaIcEE5c_strEv(ptr noundef nonnull align 8 dereferenceable(32) %add.ptr.i22.i) #28
  br label %_ZNK19OpenColorIO_v2_4dev14FormatRegistry25getFormatExtensionByIndexEii.exit

_ZNK19OpenColorIO_v2_4dev14FormatRegistry25getFormatExtensionByIndexEii.exit: ; preds = %entry, %lor.lhs.false.i, %return.sink.split.i
  %retval.0.i = phi ptr [ @.str.15, %lor.lhs.false.i ], [ @.str.15, %entry ], [ %call35.i, %return.sink.split.i ]
  ret ptr %retval.0.i
}